target datalayout = "e-m:e-p270:32:32-p271:32:32-p272:64:64-i64:64-i128:128-f80:128-n8:16:32:64-S128"
target triple = "x86_64-pc-linux-gnu"

%struct.lua_State = type { ptr, i8, i8, i8, i8, i16, %union.StkIdRel, ptr, ptr, %union.StkIdRel, %union.StkIdRel, ptr, %union.StkIdRel, ptr, ptr, ptr, %struct.CallInfo, ptr, i64, i32, i32, i32, i32, i32, %struct.anon.2 }
%union.StkIdRel = type { ptr }
%struct.CallInfo = type { %union.StkIdRel, %union.StkIdRel, ptr, ptr, %union.anon, %union.anon.1, i32 }
%union.anon = type { %struct.anon.0 }
%struct.anon.0 = type { ptr, i64, i64 }
%union.anon.1 = type { i32 }
%struct.anon.2 = type { i32, i32 }
%struct.global_State = type { ptr, ptr, i64, i64, i64, i64, %struct.stringtable, %struct.TValue, %struct.TValue, i32, [6 x i8], i8, i8, i8, i8, i8, i8, ptr, ptr, ptr, ptr, ptr, ptr, ptr, ptr, ptr, ptr, ptr, ptr, ptr, ptr, ptr, ptr, ptr, ptr, ptr, ptr, ptr, [25 x ptr], [9 x ptr], [53 x [2 x ptr]], ptr, ptr }
%struct.stringtable = type { ptr, i32, i32 }
%struct.TValue = type { %union.Value, i8 }
%union.Value = type { ptr }
%struct.GCObject = type { ptr, i8, i8 }

; Function Attrs: nounwind uwtable
define hidden ptr @luaC_newobjdt(ptr noundef %0, i8 noundef zeroext %1, i64 noundef %2, i64 noundef %3) #0 {
  %5 = alloca ptr, align 8
  %6 = alloca i8, align 1
  %7 = alloca i64, align 8
  %8 = alloca i64, align 8
  %9 = alloca ptr, align 8
  %10 = alloca ptr, align 8
  %11 = alloca ptr, align 8
  store ptr %0, ptr %5, align 8, !tbaa !4
  store i8 %1, ptr %6, align 1, !tbaa !37
  store i64 %2, ptr %7, align 8, !tbaa !56
  store i64 %3, ptr %8, align 8, !tbaa !56
  call void @llvm.lifetime.start.p0(i64 8, ptr %9) #6
  %12 = load ptr, ptr %5, align 8, !tbaa !4
  %13 = getelementptr inbounds nuw %struct.lua_State, ptr %12, i32 0, i32 7
  %14 = load ptr, ptr %13, align 8, !tbaa !11
  store ptr %14, ptr %9, align 8, !tbaa !22
  call void @llvm.lifetime.start.p0(i64 8, ptr %10) #6
  %15 = load ptr, ptr %5, align 8, !tbaa !4
  %16 = load i64, ptr %7, align 8, !tbaa !56
  %17 = load i8, ptr %6, align 1, !tbaa !37
  %18 = zext i8 %17 to i32
  %19 = and i32 %18, 15
  %20 = call ptr @luaM_malloc_(ptr noundef %15, i64 noundef %16, i32 noundef %19)
  store ptr %20, ptr %10, align 8, !tbaa !57
  call void @llvm.lifetime.start.p0(i64 8, ptr %11) #6
  %21 = load ptr, ptr %10, align 8, !tbaa !57
  %22 = load i64, ptr %8, align 8, !tbaa !56
  %23 = getelementptr inbounds nuw i8, ptr %21, i64 %22
  store ptr %23, ptr %11, align 8, !tbaa !9
  %24 = load ptr, ptr %9, align 8, !tbaa !22
  %25 = getelementptr inbounds nuw %struct.global_State, ptr %24, i32 0, i32 11
  %26 = load i8, ptr %25, align 2, !tbaa !33
  %27 = zext i8 %26 to i32
  %28 = and i32 %27, 24
  %29 = trunc i32 %28 to i8
  %30 = load ptr, ptr %11, align 8, !tbaa !9
  %31 = getelementptr inbounds nuw %struct.GCObject, ptr %30, i32 0, i32 2
  store i8 %29, ptr %31, align 1, !tbaa !30
  %32 = load i8, ptr %6, align 1, !tbaa !37
  %33 = load ptr, ptr %11, align 8, !tbaa !9
  %34 = getelementptr inbounds nuw %struct.GCObject, ptr %33, i32 0, i32 1
  store i8 %32, ptr %34, align 8, !tbaa !35
  %35 = load ptr, ptr %9, align 8, !tbaa !22
  %36 = getelementptr inbounds nuw %struct.global_State, ptr %35, i32 0, i32 17
  %37 = load ptr, ptr %36, align 8, !tbaa !54
  %38 = load ptr, ptr %11, align 8, !tbaa !9
  %39 = getelementptr inbounds nuw %struct.GCObject, ptr %38, i32 0, i32 0
  store ptr %37, ptr %39, align 8, !tbaa !53
  %40 = load ptr, ptr %11, align 8, !tbaa !9
  %41 = load ptr, ptr %9, align 8, !tbaa !22
  %42 = getelementptr inbounds nuw %struct.global_State, ptr %41, i32 0, i32 17
  store ptr %40, ptr %42, align 8, !tbaa !54
  %43 = load ptr, ptr %11, align 8, !tbaa !9
  call void @llvm.lifetime.end.p0(i64 8, ptr %11) #6
  call void @llvm.lifetime.end.p0(i64 8, ptr %10) #6
  call void @llvm.lifetime.end.p0(i64 8, ptr %9) #6
  ret ptr %43
}