; Function Attrs: nounwind uwtable
define hidden noundef ptr @luaC_newobjdt(ptr noundef %0, i8 noundef zeroext %1, i64 noundef %2, i64 noundef %3) local_unnamed_addr #0 {
  %5 = getelementptr inbounds nuw i8, ptr %0, i64 24
  %6 = load ptr, ptr %5, align 8, !tbaa !4
  %7 = and i8 %1, 15
  %8 = zext nneg i8 %7 to i32
  %9 = tail call ptr @luaM_malloc_(ptr noundef %0, i64 noundef %2, i32 noundef %8) #8
  %10 = getelementptr inbounds nuw i8, ptr %9, i64 %3
  %11 = getelementptr inbounds nuw i8, ptr %6, i64 106
  %12 = load i8, ptr %11, align 2, !tbaa !30
  %13 = and i8 %12, 24
  %14 = getelementptr inbounds nuw i8, ptr %10, i64 9
  store i8 %13, ptr %14, align 1, !tbaa !27
  %15 = getelementptr inbounds nuw i8, ptr %10, i64 8
  store i8 %1, ptr %15, align 8, !tbaa !32
  %16 = getelementptr inbounds nuw i8, ptr %6, i64 112
  %17 = load ptr, ptr %16, align 8, !tbaa !48
  store ptr %17, ptr %10, align 8, !tbaa !47
  store ptr %10, ptr %16, align 8, !tbaa !48
  ret ptr %10
}